target datalayout = "e-m:e-p270:32:32-p271:32:32-p272:64:64-i64:64-i128:128-f80:128-n8:16:32:64-S128"
target triple = "x86_64-pc-linux-gnu"

; Function Attrs: nounwind uwtable
define i32 @lv_pct_to_px(i32 noundef %0, i32 noundef %1) #0 {
  %3 = alloca i32, align 4
  %4 = alloca i32, align 4
  %5 = alloca i32, align 4
  store i32 %0, ptr %4, align 4, !tbaa !7
  store i32 %1, ptr %5, align 4, !tbaa !7
  %6 = load i32, ptr %4, align 4, !tbaa !7
  %7 = and i32 %6, 1610612736
  %8 = icmp eq i32 %7, 536870912
  br i1 %8, label %9, label %29

9:                                                ; preds = %2
  %10 = load i32, ptr %4, align 4, !tbaa !7
  %11 = and i32 %10, -1610612737
  %12 = icmp sle i32 %11, 536870910
  br i1 %12, label %13, label %29

13:                                               ; preds = %9
  %14 = load i32, ptr %4, align 4, !tbaa !7
  %15 = and i32 %14, -1610612737
  %16 = icmp sgt i32 %15, 268435455
  br i1 %16, label %17, label %21

17:                                               ; preds = %13
  %18 = load i32, ptr %4, align 4, !tbaa !7
  %19 = and i32 %18, -1610612737
  %20 = sub nsw i32 268435455, %19
  br label %24

21:                                               ; preds = %13
  %22 = load i32, ptr %4, align 4, !tbaa !7
  %23 = and i32 %22, -1610612737
  br label %24

24:                                               ; preds = %21, %17
  %25 = phi i32 [ %20, %17 ], [ %23, %21 ]
  %26 = load i32, ptr %5, align 4, !tbaa !7
  %27 = mul nsw i32 %25, %26
  %28 = sdiv i32 %27, 100
  store i32 %28, ptr %3, align 4
  br label %31

29:                                               ; preds = %9, %2
  %30 = load i32, ptr %4, align 4, !tbaa !7
  store i32 %30, ptr %3, align 4
  br label %31

31:                                               ; preds = %29, %24
  %32 = load i32, ptr %3, align 4
  ret i32 %32
}