; Function Attrs: mustprogress nofree norecurse nosync nounwind willreturn memory(none) uwtable
define i32 @lv_pct_to_px(i32 noundef %0, i32 noundef %1) local_unnamed_addr #7 {
  %3 = and i32 %0, 1610612736
  %4 = icmp eq i32 %3, 536870912
  br i1 %4, label %5, label %13

5:                                                ; preds = %2
  %6 = and i32 %0, -1610612737
  %.not = icmp eq i32 %6, 536870911
  br i1 %.not, label %13, label %7

7:                                                ; preds = %5
  %8 = icmp sgt i32 %6, 268435455
  %9 = sub nsw i32 268435455, %6
  %10 = select i1 %8, i32 %9, i32 %6
  %11 = mul nsw i32 %10, %1
  %12 = sdiv i32 %11, 100
  br label %13

13:                                               ; preds = %2, %5, %7
  %.0 = phi i32 [ %12, %7 ], [ %0, %5 ], [ %0, %2 ]
  ret i32 %.0
}